target datalayout = "e-m:e-p270:32:32-p271:32:32-p272:64:64-i64:64-i128:128-f80:128-n8:16:32:64-S128"
target triple = "x86_64-pc-linux-gnu"

%struct.option = type { i32, i32, ptr, ptr, ptr, ptr, i32, ptr, i64, ptr, i64, ptr }

@.str.120 = private unnamed_addr constant [9 x i8] c"--rebase\00", align 1
@.str.121 = private unnamed_addr constant [29 x i8] c"invalid value for '%s': '%s'\00", align 1
@.str.128 = private unnamed_addr constant [1 x i8] zeroinitializer, align 1
@git_gettext_enabled = external global i32, align 4

; Function Attrs: inlinehint nounwind uwtable
define internal i32 @const_error() #4 {
  ret i32 -1
}

; Function Attrs: inlinehint nounwind uwtable
define internal ptr @_(ptr noundef %0) #4 {
  %2 = alloca ptr, align 8
  %3 = alloca ptr, align 8
  store ptr %0, ptr %3, align 8, !tbaa !11
  %4 = load ptr, ptr %3, align 8, !tbaa !11
  %5 = load i8, ptr %4, align 1, !tbaa !63
  %6 = icmp ne i8 %5, 0
  br i1 %6, label %8, label %7

7:                                                ; preds = %1
  store ptr @.str.128, ptr %2, align 8
  br label %16

8:                                                ; preds = %1
  %9 = load i32, ptr @git_gettext_enabled, align 4, !tbaa !4
  %10 = icmp ne i32 %9, 0
  br i1 %10, label %13, label %11

11:                                               ; preds = %8
  %12 = load ptr, ptr %3, align 8, !tbaa !11
  store ptr %12, ptr %2, align 8
  br label %16

13:                                               ; preds = %8
  %14 = load ptr, ptr %3, align 8, !tbaa !11
  %15 = call ptr @dcgettext(ptr noundef null, ptr noundef %14, i32 noundef 5) #11
  store ptr %15, ptr %2, align 8
  br label %16

16:                                               ; preds = %13, %11, %7
  %17 = load ptr, ptr %2, align 8
  ret ptr %17
}

; Function Attrs: nounwind uwtable
define internal i32 @parse_config_rebase(ptr noundef %0, ptr noundef %1, i32 noundef %2) #0 {
  %4 = alloca i32, align 4
  %5 = alloca ptr, align 8
  %6 = alloca ptr, align 8
  %7 = alloca i32, align 4
  %8 = alloca i32, align 4
  %9 = alloca i32, align 4
  store ptr %0, ptr %5, align 8, !tbaa !11
  store ptr %1, ptr %6, align 8, !tbaa !11
  store i32 %2, ptr %7, align 4, !tbaa !4
  call void @llvm.lifetime.start.p0(i64 4, ptr %8) #11
  %10 = load ptr, ptr %6, align 8, !tbaa !11
  %11 = call i32 @rebase_parse_value(ptr noundef %10)
  store i32 %11, ptr %8, align 4, !tbaa !4
  %12 = load i32, ptr %8, align 4, !tbaa !4
  %13 = icmp ne i32 %12, -1
  br i1 %13, label %14, label %16

14:                                               ; preds = %3
  %15 = load i32, ptr %8, align 4, !tbaa !4
  store i32 %15, ptr %4, align 4
  store i32 1, ptr %9, align 4
  br label %30

16:                                               ; preds = %3
  %17 = load i32, ptr %7, align 4, !tbaa !4
  %18 = icmp ne i32 %17, 0
  br i1 %18, label %19, label %23

19:                                               ; preds = %16
  %20 = call ptr @_(ptr noundef @.str.121)
  %21 = load ptr, ptr %5, align 8, !tbaa !11
  %22 = load ptr, ptr %6, align 8, !tbaa !11
  call void (ptr, ...) @die(ptr noundef %20, ptr noundef %21, ptr noundef %22) #13
  unreachable

23:                                               ; preds = %16
  %24 = call ptr @_(ptr noundef @.str.121)
  %25 = load ptr, ptr %5, align 8, !tbaa !11
  %26 = load ptr, ptr %6, align 8, !tbaa !11
  %27 = call i32 (ptr, ...) @error(ptr noundef %24, ptr noundef %25, ptr noundef %26)
  %28 = call i32 @const_error()
  br label %29

29:                                               ; preds = %23
  store i32 -1, ptr %4, align 4
  store i32 1, ptr %9, align 4
  br label %30

30:                                               ; preds = %29, %14
  call void @llvm.lifetime.end.p0(i64 4, ptr %8) #11
  %31 = load i32, ptr %4, align 4
  ret i32 %31
}

; Function Attrs: nounwind uwtable
define internal i32 @parse_opt_rebase(ptr noundef %0, ptr noundef %1, i32 noundef %2) #0 {
  %4 = alloca ptr, align 8
  %5 = alloca ptr, align 8
  %6 = alloca i32, align 4
  %7 = alloca ptr, align 8
  store ptr %0, ptr %4, align 8, !tbaa !86
  store ptr %1, ptr %5, align 8, !tbaa !11
  store i32 %2, ptr %6, align 4, !tbaa !4
  call void @llvm.lifetime.start.p0(i64 8, ptr %7) #11
  %8 = load ptr, ptr %4, align 8, !tbaa !86
  %9 = getelementptr inbounds nuw %struct.option, ptr %8, i32 0, i32 3
  %10 = load ptr, ptr %9, align 8, !tbaa !88
  store ptr %10, ptr %7, align 8, !tbaa !45
  %11 = load ptr, ptr %5, align 8, !tbaa !11
  %12 = icmp ne ptr %11, null
  br i1 %12, label %13, label %17

13:                                               ; preds = %3
  %14 = load ptr, ptr %5, align 8, !tbaa !11
  %15 = call i32 @parse_config_rebase(ptr noundef @.str.120, ptr noundef %14, i32 noundef 0)
  %16 = load ptr, ptr %7, align 8, !tbaa !45
  store i32 %15, ptr %16, align 4, !tbaa !4
  br label %22

17:                                               ; preds = %3
  %18 = load i32, ptr %6, align 4, !tbaa !4
  %19 = icmp ne i32 %18, 0
  %20 = select i1 %19, i32 0, i32 1
  %21 = load ptr, ptr %7, align 8, !tbaa !45
  store i32 %20, ptr %21, align 4, !tbaa !4
  br label %22

22:                                               ; preds = %17, %13
  %23 = load ptr, ptr %7, align 8, !tbaa !45
  %24 = load i32, ptr %23, align 4, !tbaa !4
  %25 = icmp eq i32 %24, -1
  %26 = select i1 %25, i32 -1, i32 0
  call void @llvm.lifetime.end.p0(i64 8, ptr %7) #11
  ret i32 %26
}