; Function Attrs: nounwind uwtable
define internal range(i32 -1, 1) i32 @parse_opt_rebase(ptr noundef readonly captures(none) %0, ptr noundef %1, i32 noundef %2) #0 {
  %4 = getelementptr inbounds nuw i8, ptr %0, i64 16
  %5 = load ptr, ptr %4, align 8, !tbaa !83
  %.not = icmp eq ptr %1, null
  br i1 %.not, label %13, label %6

6:                                                ; preds = %3
  %7 = tail call i32 @rebase_parse_value(ptr noundef nonnull %1) #17
  %.not.i = icmp eq i32 %7, -1
  br i1 %.not.i, label %8, label %parse_config_rebase.exit

8:                                                ; preds = %6
  %9 = load i32, ptr @git_gettext_enabled, align 4, !tbaa !39
  %.not4.i.i = icmp eq i32 %9, 0
  br i1 %.not4.i.i, label %_.exit.i, label %10

10:                                               ; preds = %8
  %11 = tail call ptr @dcgettext(ptr noundef null, ptr noundef nonnull @.str.121, i32 noundef 5) #17
  br label %_.exit.i

_.exit.i:                                         ; preds = %10, %8
  %.0.i.i = phi ptr [ %11, %10 ], [ @.str.121, %8 ]
  %12 = tail call i32 (ptr, ...) @error(ptr noundef %.0.i.i, ptr noundef nonnull @.str.120, ptr noundef nonnull %1) #17
  br label %parse_config_rebase.exit

13:                                               ; preds = %3
  %.not6 = icmp eq i32 %2, 0
  %14 = zext i1 %.not6 to i32
  br label %parse_config_rebase.exit

parse_config_rebase.exit:                         ; preds = %_.exit.i, %6, %13
  %storemerge = phi i32 [ %14, %13 ], [ %7, %6 ], [ -1, %_.exit.i ]
  store i32 %storemerge, ptr %5, align 4, !tbaa !39
  %15 = icmp eq i32 %storemerge, -1
  %16 = sext i1 %15 to i32
  ret i32 %16
}